target datalayout = "e-m:e-p270:32:32-p271:32:32-p272:64:64-i64:64-i128:128-f80:128-n8:16:32:64-S128"
target triple = "x86_64-pc-linux-gnu"

%struct.MEMO = type { i64, i64, i64, i64, %union.anon.1 }
%union.anon.1 = type { i64 }

@.str.83 = private unnamed_addr constant [21 x i8] c"given block not used\00", align 1

; Function Attrs: inlinehint nounwind sspstrong uwtable
define internal ptr @MEMO_NEW(i64 noundef %0, i64 noundef %1, i64 noundef %2) #3 {
  %4 = alloca i64, align 8
  %5 = alloca i64, align 8
  %6 = alloca i64, align 8
  %7 = alloca ptr, align 8
  store i64 %0, ptr %4, align 8, !tbaa !14
  store i64 %1, ptr %5, align 8, !tbaa !14
  store i64 %2, ptr %6, align 8, !tbaa !14
  call void @llvm.lifetime.start.p0(i64 8, ptr %7) #22
  %8 = call i64 @rb_imemo_new(i32 noundef 5, i64 noundef 0, i64 noundef 40)
  %9 = inttoptr i64 %8 to ptr
  store ptr %9, ptr %7, align 8, !tbaa !34
  %10 = load i64, ptr %4, align 8, !tbaa !14
  %11 = load ptr, ptr %7, align 8, !tbaa !34
  %12 = getelementptr inbounds nuw %struct.MEMO, ptr %11, i32 0, i32 2
  store i64 %10, ptr %12, align 8, !tbaa !14
  %13 = load i64, ptr %5, align 8, !tbaa !14
  %14 = load ptr, ptr %7, align 8, !tbaa !34
  %15 = getelementptr inbounds nuw %struct.MEMO, ptr %14, i32 0, i32 3
  store i64 %13, ptr %15, align 8, !tbaa !14
  %16 = load i64, ptr %6, align 8, !tbaa !14
  %17 = load ptr, ptr %7, align 8, !tbaa !34
  %18 = getelementptr inbounds nuw %struct.MEMO, ptr %17, i32 0, i32 4
  store i64 %16, ptr %18, align 8, !tbaa !31
  %19 = load ptr, ptr %7, align 8, !tbaa !34
  call void @llvm.lifetime.end.p0(i64 8, ptr %7) #22
  ret ptr %19
}

; Function Attrs: inlinehint nounwind sspstrong uwtable
define internal i32 @rb_check_arity(i32 noundef %0, i32 noundef %1, i32 noundef %2) #3 {
  %4 = alloca i32, align 4
  %5 = alloca i32, align 4
  %6 = alloca i32, align 4
  store i32 %0, ptr %4, align 4, !tbaa !7
  store i32 %1, ptr %5, align 4, !tbaa !7
  store i32 %2, ptr %6, align 4, !tbaa !7
  %7 = load i32, ptr %4, align 4, !tbaa !7
  %8 = load i32, ptr %5, align 4, !tbaa !7
  %9 = icmp slt i32 %7, %8
  br i1 %9, label %17, label %10

10:                                               ; preds = %3
  %11 = load i32, ptr %6, align 4, !tbaa !7
  %12 = icmp ne i32 %11, -1
  br i1 %12, label %13, label %21

13:                                               ; preds = %10
  %14 = load i32, ptr %4, align 4, !tbaa !7
  %15 = load i32, ptr %6, align 4, !tbaa !7
  %16 = icmp sgt i32 %14, %15
  br i1 %16, label %17, label %21

17:                                               ; preds = %13, %3
  %18 = load i32, ptr %4, align 4, !tbaa !7
  %19 = load i32, ptr %5, align 4, !tbaa !7
  %20 = load i32, ptr %6, align 4, !tbaa !7
  call void @rb_error_arity(i32 noundef %18, i32 noundef %19, i32 noundef %20) #23
  unreachable

21:                                               ; preds = %13, %10
  %22 = load i32, ptr %4, align 4, !tbaa !7
  ret i32 %22
}

; Function Attrs: nounwind sspstrong uwtable
define internal i64 @enum_none(i32 noundef %0, ptr noundef %1, i64 noundef %2) #0 {
  %4 = alloca i32, align 4
  %5 = alloca ptr, align 8
  %6 = alloca i64, align 8
  %7 = alloca ptr, align 8
  store i32 %0, ptr %4, align 4, !tbaa !7
  store ptr %1, ptr %5, align 8, !tbaa !11
  store i64 %2, ptr %6, align 8, !tbaa !14
  call void @llvm.lifetime.start.p0(i64 8, ptr %7) #22
  %8 = load i32, ptr %4, align 4, !tbaa !7
  %9 = call i32 @rb_check_arity(i32 noundef %8, i32 noundef 0, i32 noundef 1)
  %10 = load i32, ptr %4, align 4, !tbaa !7
  %11 = icmp ne i32 %10, 0
  br i1 %11, label %12, label %15

12:                                               ; preds = %3
  %13 = load ptr, ptr %5, align 8, !tbaa !11
  %14 = load i64, ptr %13, align 8, !tbaa !14
  br label %16

15:                                               ; preds = %3
  br label %16

16:                                               ; preds = %15, %12
  %17 = phi i64 [ %14, %12 ], [ 0, %15 ]
  %18 = call ptr @MEMO_NEW(i64 noundef 20, i64 noundef %17, i64 noundef 0)
  store ptr %18, ptr %7, align 8, !tbaa !34
  br label %19

19:                                               ; preds = %16
  %20 = load i32, ptr %4, align 4, !tbaa !7
  %21 = icmp sgt i32 %20, 0
  br i1 %21, label %22, label %26

22:                                               ; preds = %19
  %23 = call i32 @rb_block_given_p()
  %24 = icmp ne i32 %23, 0
  br i1 %24, label %25, label %26

25:                                               ; preds = %22
  call void (ptr, ...) @rb_warn(ptr noundef @.str.83) #27
  br label %26

26:                                               ; preds = %25, %22, %19
  br label %27

27:                                               ; preds = %26
  br label %28

28:                                               ; preds = %27
  %29 = load i64, ptr %6, align 8, !tbaa !14
  %30 = load i32, ptr %4, align 4, !tbaa !7
  %31 = icmp ne i32 %30, 0
  br i1 %31, label %32, label %33

32:                                               ; preds = %28
  br label %37

33:                                               ; preds = %28
  %34 = call i32 @rb_block_given_p()
  %35 = icmp ne i32 %34, 0
  %36 = select i1 %35, ptr @none_iter_i, ptr @none_i
  br label %37

37:                                               ; preds = %33, %32
  %38 = phi ptr [ @none_eqq, %32 ], [ %36, %33 ]
  %39 = load ptr, ptr %7, align 8, !tbaa !34
  %40 = ptrtoint ptr %39 to i64
  %41 = call i32 @rb_block_given_p()
  %42 = icmp ne i32 %41, 0
  br i1 %42, label %43, label %46

43:                                               ; preds = %37
  %44 = call i32 @rb_block_pair_yield_optimizable()
  %45 = icmp ne i32 %44, 0
  br label %46

46:                                               ; preds = %43, %37
  %47 = phi i1 [ false, %37 ], [ %45, %43 ]
  %48 = select i1 %47, i32 2, i32 0
  %49 = sext i32 %48 to i64
  %50 = call i64 @rb_block_call2(i64 noundef %29, i64 noundef 3073, i32 noundef 0, ptr noundef null, ptr noundef %38, i64 noundef %40, i64 noundef %49)
  %51 = load ptr, ptr %7, align 8, !tbaa !34
  %52 = getelementptr inbounds nuw %struct.MEMO, ptr %51, i32 0, i32 2
  %53 = load i64, ptr %52, align 8, !tbaa !46
  call void @llvm.lifetime.end.p0(i64 8, ptr %7) #22
  ret i64 %53
}